target datalayout = "e-m:e-p270:32:32-p271:32:32-p272:64:64-i64:64-i128:128-f80:128-n8:16:32:64-S128"
target triple = "x86_64-pc-linux-gnu"

%struct.Vmem = type { ptr, i64, i64 }
%struct.ParseContext_ = type { %struct.TokenData, i32, %union.SourceSpan, %union.SourceSpan, ptr, %struct.Lexer }
%struct.TokenData = type { ptr, i64, %union.anon.86 }
%union.anon.86 = type { %struct.anon.89 }
%struct.anon.89 = type { %struct.Int128_, i8 }
%struct.Int128_ = type { i64, i64 }
%union.SourceSpan = type { i64 }
%struct.Lexer = type { ptr, ptr, ptr, ptr, i32, i32, ptr, ptr, ptr, %struct.TokenData, %union.SourceSpan, i32, i32 }
%struct.Ast_ = type { %union.SourceSpan, i32, i8, %union.anon.62 }
%union.anon.62 = type { %struct.AstDocDirective_ }
%struct.AstDocDirective_ = type { i8, %union.anon.65 }
%union.anon.65 = type { %struct.anon.66 }
%struct.anon.66 = type { ptr, %union.SourceSpan, i8 }
%struct.Expr_ = type { ptr, %union.SourceSpan, i16, %union.anon.30 }
%union.anon.30 = type { %struct.ExprAnySwitch }
%struct.ExprAnySwitch = type { i8, %union.anon.32 }
%union.anon.32 = type { %struct.anon.33 }
%struct.anon.33 = type { ptr, %union.SourceSpan, ptr }
%struct.AstAssertStmt = type { i8, i32, i32, ptr }

@poisoned_ast = external global ptr, align 8
@expr_arena = external global %struct.Vmem, align 8
@.str.15 = private unnamed_addr constant [21 x i8] c"Expected a ';' here.\00", align 1
@ast_arena = external global %struct.Vmem, align 8

; Function Attrs: nounwind uwtable
define internal ptr @consume_eos(ptr noundef %0, ptr noundef %1) #0 {
  %3 = alloca ptr, align 8
  %4 = alloca ptr, align 8
  %5 = alloca ptr, align 8
  store ptr %0, ptr %4, align 8
  store ptr %1, ptr %5, align 8
  %6 = load ptr, ptr %4, align 8
  %7 = call zeroext i1 @try_consume(ptr noundef %6, i32 noundef 9)
  br i1 %7, label %15, label %8

8:                                                ; preds = %2
  %9 = load ptr, ptr %4, align 8
  %10 = getelementptr inbounds %struct.ParseContext_, ptr %9, i32 0, i32 3
  %11 = getelementptr inbounds %union.SourceSpan, ptr %10, i32 0, i32 0
  %12 = load i64, ptr %11, align 8
  call void (i64, ptr, ...) @sema_error_at_after(i64 %12, ptr noundef @.str.15)
  %13 = load ptr, ptr %4, align 8
  call void @advance(ptr noundef %13)
  %14 = load ptr, ptr @poisoned_ast, align 8
  store ptr %14, ptr %3, align 8
  br label %17

15:                                               ; preds = %2
  %16 = load ptr, ptr %5, align 8
  store ptr %16, ptr %3, align 8
  br label %17

17:                                               ; preds = %15, %8
  %18 = load ptr, ptr %3, align 8
  ret ptr %18
}

; Function Attrs: nounwind uwtable
define internal i32 @exprid(ptr noundef %0) #0 {
  %2 = alloca ptr, align 8
  store ptr %0, ptr %2, align 8
  %3 = load ptr, ptr %2, align 8
  %4 = load ptr, ptr @expr_arena, align 8
  %5 = ptrtoint ptr %3 to i64
  %6 = ptrtoint ptr %4 to i64
  %7 = sub i64 %5, %6
  %8 = sdiv exact i64 %7, 56
  %9 = trunc i64 %8 to i32
  ret i32 %9
}

; Function Attrs: nounwind uwtable
define internal ptr @ast_calloc() #0 {
  %1 = call ptr @vmem_alloc(ptr noundef @ast_arena, i64 noundef 48)
  ret ptr %1
}

; Function Attrs: nounwind uwtable
define dso_local ptr @parse_ct_assert_stmt(ptr noundef %0) #0 {
  %2 = alloca %union.SourceSpan, align 8
  %3 = alloca i32, align 4
  %4 = alloca ptr, align 8
  %5 = alloca ptr, align 8
  %6 = alloca ptr, align 8
  %7 = alloca ptr, align 8
  %8 = alloca i32, align 4
  %9 = alloca ptr, align 8
  %10 = alloca i32, align 4
  %11 = alloca ptr, align 8
  %12 = alloca ptr, align 8
  %13 = alloca ptr, align 8
  %14 = alloca ptr, align 8
  %15 = alloca ptr, align 8
  store ptr %0, ptr %12, align 8
  %16 = load ptr, ptr %12, align 8
  store ptr %16, ptr %9, align 8
  store i32 8, ptr %10, align 4
  %17 = load i32, ptr %10, align 4
  %18 = load ptr, ptr %9, align 8
  %19 = getelementptr inbounds %struct.ParseContext_, ptr %18, i32 0, i32 2
  %20 = load i64, ptr %19, align 8
  store i64 %20, ptr %2, align 8
  store i32 %17, ptr %3, align 4
  %21 = call ptr @ast_calloc()
  store ptr %21, ptr %4, align 8
  %22 = load ptr, ptr %4, align 8
  call void @llvm.memcpy.p0.p0.i64(ptr align 8 %22, ptr align 8 %2, i64 8, i1 false)
  %23 = load i32, ptr %3, align 4
  %24 = load ptr, ptr %4, align 8
  %25 = getelementptr inbounds %struct.Ast_, ptr %24, i32 0, i32 2
  %26 = trunc i32 %23 to i8
  store i8 %26, ptr %25, align 4
  %27 = load ptr, ptr %4, align 8
  store ptr %27, ptr %13, align 8
  %28 = load ptr, ptr %12, align 8
  store ptr %28, ptr %7, align 8
  store i32 147, ptr %8, align 4
  %29 = load ptr, ptr %7, align 8
  call void @advance(ptr noundef %29) #4
  %30 = load ptr, ptr %12, align 8
  %31 = call ptr @parse_constant_expr(ptr noundef %30)
  store ptr %31, ptr %14, align 8
  %32 = load ptr, ptr %14, align 8
  store ptr %32, ptr %5, align 8
  %33 = load ptr, ptr %5, align 8
  %34 = icmp eq ptr %33, null
  br i1 %34, label %42, label %35

35:                                               ; preds = %1
  %36 = load ptr, ptr %5, align 8
  %37 = getelementptr inbounds %struct.Expr_, ptr %36, i32 0, i32 2
  %38 = load i16, ptr %37, align 8
  %39 = and i16 %38, 255
  %40 = zext i16 %39 to i32
  %41 = icmp ne i32 %40, 0
  br label %42

42:                                               ; preds = %35, %1
  %43 = phi i1 [ true, %1 ], [ %41, %35 ]
  br i1 %43, label %46, label %44

44:                                               ; preds = %42
  %45 = load ptr, ptr @poisoned_ast, align 8
  store ptr %45, ptr %11, align 8
  br label %81

46:                                               ; preds = %42
  %47 = load ptr, ptr %14, align 8
  %48 = call i32 @exprid(ptr noundef %47)
  %49 = load ptr, ptr %13, align 8
  %50 = getelementptr inbounds %struct.Ast_, ptr %49, i32 0, i32 3
  %51 = getelementptr inbounds %struct.AstAssertStmt, ptr %50, i32 0, i32 2
  store i32 %48, ptr %51, align 8
  %52 = load ptr, ptr %12, align 8
  %53 = call zeroext i1 @try_consume(ptr noundef %52, i32 noundef 7)
  br i1 %53, label %54, label %77

54:                                               ; preds = %46
  %55 = load ptr, ptr %12, align 8
  %56 = call ptr @parse_constant_expr(ptr noundef %55)
  store ptr %56, ptr %15, align 8
  %57 = load ptr, ptr %15, align 8
  store ptr %57, ptr %6, align 8
  %58 = load ptr, ptr %6, align 8
  %59 = icmp eq ptr %58, null
  br i1 %59, label %67, label %60

60:                                               ; preds = %54
  %61 = load ptr, ptr %6, align 8
  %62 = getelementptr inbounds %struct.Expr_, ptr %61, i32 0, i32 2
  %63 = load i16, ptr %62, align 8
  %64 = and i16 %63, 255
  %65 = zext i16 %64 to i32
  %66 = icmp ne i32 %65, 0
  br label %67

67:                                               ; preds = %60, %54
  %68 = phi i1 [ true, %54 ], [ %66, %60 ]
  br i1 %68, label %71, label %69

69:                                               ; preds = %67
  %70 = load ptr, ptr @poisoned_ast, align 8
  store ptr %70, ptr %11, align 8
  br label %81

71:                                               ; preds = %67
  %72 = load ptr, ptr %15, align 8
  %73 = call i32 @exprid(ptr noundef %72)
  %74 = load ptr, ptr %13, align 8
  %75 = getelementptr inbounds %struct.Ast_, ptr %74, i32 0, i32 3
  %76 = getelementptr inbounds %struct.AstAssertStmt, ptr %75, i32 0, i32 1
  store i32 %73, ptr %76, align 4
  br label %77

77:                                               ; preds = %71, %46
  %78 = load ptr, ptr %12, align 8
  %79 = load ptr, ptr %13, align 8
  %80 = call ptr @consume_eos(ptr noundef %78, ptr noundef %79)
  store ptr %80, ptr %11, align 8
  br label %81

81:                                               ; preds = %77, %69, %44
  %82 = load ptr, ptr %11, align 8
  ret ptr %82
}