; Function Attrs: nounwind uwtable
define dso_local ptr @parse_ct_assert_stmt(ptr noundef %0) local_unnamed_addr #0 {
  %2 = getelementptr inbounds i8, ptr %0, i64 48
  %3 = load i64, ptr %2, align 8
  %4 = tail call ptr @vmem_alloc(ptr noundef nonnull @ast_arena, i64 noundef 48) #5
  store i64 %3, ptr %4, align 8
  %5 = getelementptr inbounds i8, ptr %4, i64 12
  store i8 8, ptr %5, align 4
  tail call void @advance(ptr noundef %0) #5
  %6 = tail call ptr @parse_constant_expr(ptr noundef %0) #5
  %7 = icmp eq ptr %6, null
  br i1 %7, label %.critedge, label %8

8:                                                ; preds = %1
  %9 = getelementptr inbounds i8, ptr %6, i64 16
  %10 = load i16, ptr %9, align 8
  %11 = and i16 %10, 255
  %.not = icmp eq i16 %11, 0
  br i1 %.not, label %13, label %.split

.split:                                           ; preds = %8
  %12 = ptrtoint ptr %6 to i64
  br label %.critedge

13:                                               ; preds = %8
  %14 = load ptr, ptr @poisoned_ast, align 8
  br label %consume_eos.exit

.critedge:                                        ; preds = %1, %.split
  %.sink = phi i64 [ %12, %.split ], [ 0, %1 ]
  %.sink34 = load ptr, ptr @expr_arena, align 8
  %15 = ptrtoint ptr %.sink34 to i64
  %16 = sub i64 %.sink, %15
  %phi.call.in = sdiv exact i64 %16, 56
  %phi.call = trunc i64 %phi.call.in to i32
  %17 = getelementptr inbounds i8, ptr %4, i64 24
  store i32 %phi.call, ptr %17, align 8
  %18 = tail call zeroext i1 @try_consume(ptr noundef nonnull %0, i32 noundef 7) #5
  br i1 %18, label %19, label %32

19:                                               ; preds = %.critedge
  %20 = tail call ptr @parse_constant_expr(ptr noundef nonnull %0) #5
  %21 = icmp eq ptr %20, null
  br i1 %21, label %.critedge2, label %22

22:                                               ; preds = %19
  %23 = getelementptr inbounds i8, ptr %20, i64 16
  %24 = load i16, ptr %23, align 8
  %25 = and i16 %24, 255
  %.not32 = icmp eq i16 %25, 0
  br i1 %.not32, label %27, label %.split27

.split27:                                         ; preds = %22
  %26 = ptrtoint ptr %20 to i64
  br label %.critedge2

27:                                               ; preds = %22
  %28 = load ptr, ptr @poisoned_ast, align 8
  br label %consume_eos.exit

.critedge2:                                       ; preds = %19, %.split27
  %.sink35 = phi i64 [ %26, %.split27 ], [ 0, %19 ]
  %.sink37 = load ptr, ptr @expr_arena, align 8
  %29 = ptrtoint ptr %.sink37 to i64
  %30 = sub i64 %.sink35, %29
  %phi.call29.in = sdiv exact i64 %30, 56
  %phi.call29 = trunc i64 %phi.call29.in to i32
  %31 = getelementptr inbounds i8, ptr %4, i64 20
  store i32 %phi.call29, ptr %31, align 4
  br label %32

32:                                               ; preds = %.critedge2, %.critedge
  %33 = tail call zeroext i1 @try_consume(ptr noundef nonnull %0, i32 noundef 9) #5
  br i1 %33, label %consume_eos.exit, label %34

34:                                               ; preds = %32
  %35 = getelementptr inbounds i8, ptr %0, i64 56
  %36 = load i64, ptr %35, align 8
  tail call void (i64, ptr, ...) @sema_error_at_after(i64 %36, ptr noundef nonnull @.str.15) #5
  tail call void @advance(ptr noundef nonnull %0) #5
  %37 = load ptr, ptr @poisoned_ast, align 8
  br label %consume_eos.exit

consume_eos.exit:                                 ; preds = %34, %32, %27, %13
  %.0 = phi ptr [ %28, %27 ], [ %14, %13 ], [ %37, %34 ], [ %4, %32 ]
  ret ptr %.0
}